target datalayout = "e-m:e-p270:32:32-p271:32:32-p272:64:64-i64:64-i128:128-f80:128-n8:16:32:64-S128"
target triple = "x86_64-pc-linux-gnu"

; Function Attrs: mustprogress nounwind uwtable
define linkonce_odr hidden void @_ZN2cv12cpu_baseline12acc_general_IffEEvPKT_PT0_PKhiii(ptr noundef %0, ptr noundef %1, ptr noundef %2, i32 noundef %3, i32 noundef %4, i32 noundef %5) #2 comdat {
  %7 = alloca ptr, align 8
  %8 = alloca ptr, align 8
  %9 = alloca ptr, align 8
  %10 = alloca i32, align 4
  %11 = alloca i32, align 4
  %12 = alloca i32, align 4
  %13 = alloca i32, align 4
  %14 = alloca i32, align 4
  store ptr %0, ptr %7, align 8, !tbaa !8
  store ptr %1, ptr %8, align 8, !tbaa !8
  store ptr %2, ptr %9, align 8, !tbaa !3
  store i32 %3, ptr %10, align 4, !tbaa !10
  store i32 %4, ptr %11, align 4, !tbaa !10
  store i32 %5, ptr %12, align 4, !tbaa !10
  call void @llvm.lifetime.start.p0(i64 4, ptr %13) #4
  %15 = load i32, ptr %12, align 4, !tbaa !10
  store i32 %15, ptr %13, align 4, !tbaa !10
  %16 = load ptr, ptr %9, align 8, !tbaa !3
  %17 = icmp ne ptr %16, null
  br i1 %17, label %42, label %18

18:                                               ; preds = %6
  %19 = load i32, ptr %11, align 4, !tbaa !10
  %20 = load i32, ptr %10, align 4, !tbaa !10
  %21 = mul nsw i32 %20, %19
  store i32 %21, ptr %10, align 4, !tbaa !10
  br label %22

22:                                               ; preds = %38, %18
  %23 = load i32, ptr %13, align 4, !tbaa !10
  %24 = load i32, ptr %10, align 4, !tbaa !10
  %25 = icmp slt i32 %23, %24
  br i1 %25, label %26, label %41

26:                                               ; preds = %22
  %27 = load ptr, ptr %7, align 8, !tbaa !8
  %28 = load i32, ptr %13, align 4, !tbaa !10
  %29 = sext i32 %28 to i64
  %30 = getelementptr inbounds float, ptr %27, i64 %29
  %31 = load float, ptr %30, align 4, !tbaa !13
  %32 = load ptr, ptr %8, align 8, !tbaa !8
  %33 = load i32, ptr %13, align 4, !tbaa !10
  %34 = sext i32 %33 to i64
  %35 = getelementptr inbounds float, ptr %32, i64 %34
  %36 = load float, ptr %35, align 4, !tbaa !13
  %37 = fadd float %36, %31
  store float %37, ptr %35, align 4, !tbaa !13
  br label %38

38:                                               ; preds = %26
  %39 = load i32, ptr %13, align 4, !tbaa !10
  %40 = add nsw i32 %39, 1
  store i32 %40, ptr %13, align 4, !tbaa !10
  br label %22, !llvm.loop !26

41:                                               ; preds = %22
  br label %101

42:                                               ; preds = %6
  %43 = load i32, ptr %13, align 4, !tbaa !10
  %44 = load i32, ptr %11, align 4, !tbaa !10
  %45 = mul nsw i32 %43, %44
  %46 = load ptr, ptr %7, align 8, !tbaa !8
  %47 = sext i32 %45 to i64
  %48 = getelementptr inbounds float, ptr %46, i64 %47
  store ptr %48, ptr %7, align 8, !tbaa !8
  %49 = load i32, ptr %13, align 4, !tbaa !10
  %50 = load i32, ptr %11, align 4, !tbaa !10
  %51 = mul nsw i32 %49, %50
  %52 = load ptr, ptr %8, align 8, !tbaa !8
  %53 = sext i32 %51 to i64
  %54 = getelementptr inbounds float, ptr %52, i64 %53
  store ptr %54, ptr %8, align 8, !tbaa !8
  br label %55

55:                                               ; preds = %89, %42
  %56 = load i32, ptr %13, align 4, !tbaa !10
  %57 = load i32, ptr %10, align 4, !tbaa !10
  %58 = icmp slt i32 %56, %57
  br i1 %58, label %59, label %100

59:                                               ; preds = %55
  %60 = load ptr, ptr %9, align 8, !tbaa !3
  %61 = load i32, ptr %13, align 4, !tbaa !10
  %62 = sext i32 %61 to i64
  %63 = getelementptr inbounds i8, ptr %60, i64 %62
  %64 = load i8, ptr %63, align 1, !tbaa !12
  %65 = icmp ne i8 %64, 0
  br i1 %65, label %66, label %88

66:                                               ; preds = %59
  call void @llvm.lifetime.start.p0(i64 4, ptr %14) #4
  store i32 0, ptr %14, align 4, !tbaa !10
  br label %67

67:                                               ; preds = %84, %66
  %68 = load i32, ptr %14, align 4, !tbaa !10
  %69 = load i32, ptr %11, align 4, !tbaa !10
  %70 = icmp slt i32 %68, %69
  br i1 %70, label %72, label %71

71:                                               ; preds = %67
  call void @llvm.lifetime.end.p0(i64 4, ptr %14) #4
  br label %87

72:                                               ; preds = %67
  %73 = load ptr, ptr %7, align 8, !tbaa !8
  %74 = load i32, ptr %14, align 4, !tbaa !10
  %75 = sext i32 %74 to i64
  %76 = getelementptr inbounds float, ptr %73, i64 %75
  %77 = load float, ptr %76, align 4, !tbaa !13
  %78 = load ptr, ptr %8, align 8, !tbaa !8
  %79 = load i32, ptr %14, align 4, !tbaa !10
  %80 = sext i32 %79 to i64
  %81 = getelementptr inbounds float, ptr %78, i64 %80
  %82 = load float, ptr %81, align 4, !tbaa !13
  %83 = fadd float %82, %77
  store float %83, ptr %81, align 4, !tbaa !13
  br label %84

84:                                               ; preds = %72
  %85 = load i32, ptr %14, align 4, !tbaa !10
  %86 = add nsw i32 %85, 1
  store i32 %86, ptr %14, align 4, !tbaa !10
  br label %67, !llvm.loop !27

87:                                               ; preds = %71
  br label %88

88:                                               ; preds = %87, %59
  br label %89

89:                                               ; preds = %88
  %90 = load i32, ptr %13, align 4, !tbaa !10
  %91 = add nsw i32 %90, 1
  store i32 %91, ptr %13, align 4, !tbaa !10
  %92 = load i32, ptr %11, align 4, !tbaa !10
  %93 = load ptr, ptr %7, align 8, !tbaa !8
  %94 = sext i32 %92 to i64
  %95 = getelementptr inbounds float, ptr %93, i64 %94
  store ptr %95, ptr %7, align 8, !tbaa !8
  %96 = load i32, ptr %11, align 4, !tbaa !10
  %97 = load ptr, ptr %8, align 8, !tbaa !8
  %98 = sext i32 %96 to i64
  %99 = getelementptr inbounds float, ptr %97, i64 %98
  store ptr %99, ptr %8, align 8, !tbaa !8
  br label %55, !llvm.loop !28

100:                                              ; preds = %55
  br label %101

101:                                              ; preds = %100, %41
  call void @llvm.lifetime.end.p0(i64 4, ptr %13) #4
  ret void
}

; Function Attrs: mustprogress uwtable
define hidden void @_ZN2cv12cpu_baseline9acc_simd_EPKfPfPKhii(ptr noundef %0, ptr noundef %1, ptr noundef %2, i32 noundef %3, i32 noundef %4) #0 {
  %6 = alloca ptr, align 8
  %7 = alloca ptr, align 8
  %8 = alloca ptr, align 8
  %9 = alloca i32, align 4
  %10 = alloca i32, align 4
  %11 = alloca i32, align 4
  store ptr %0, ptr %6, align 8, !tbaa !8
  store ptr %1, ptr %7, align 8, !tbaa !8
  store ptr %2, ptr %8, align 8, !tbaa !3
  store i32 %3, ptr %9, align 4, !tbaa !10
  store i32 %4, ptr %10, align 4, !tbaa !10
  call void @llvm.lifetime.start.p0(i64 4, ptr %11) #4
  store i32 0, ptr %11, align 4, !tbaa !10
  %12 = load ptr, ptr %6, align 8, !tbaa !8
  %13 = load ptr, ptr %7, align 8, !tbaa !8
  %14 = load ptr, ptr %8, align 8, !tbaa !3
  %15 = load i32, ptr %9, align 4, !tbaa !10
  %16 = load i32, ptr %10, align 4, !tbaa !10
  %17 = load i32, ptr %11, align 4, !tbaa !10
  call void @_ZN2cv12cpu_baseline12acc_general_IffEEvPKT_PT0_PKhiii(ptr noundef %12, ptr noundef %13, ptr noundef %14, i32 noundef %15, i32 noundef %16, i32 noundef %17)
  call void @llvm.lifetime.end.p0(i64 4, ptr %11) #4
  ret void
}